target datalayout = "e-m:e-p270:32:32-p271:32:32-p272:64:64-i64:64-i128:128-f80:128-n8:16:32:64-S128"
target triple = "x86_64-pc-linux-gnu"

%struct.stbte__colorrect = type { i32, i32, i32, i32, i32 }
%struct.stbte__panel = type { i32, i32, i32, i32, i32, i32, i32, i32 }
%struct.stbte__ui_t = type { i32, i32, i32, i32, i32, i32, i32, i32, i32, i32, i32, i32, i32, i32, [2 x i32], [256 x %struct.stbte__colorrect], i32, i32, i32, i32, i32, i32, i32, i32, i32, i32, i32, i32, i32, i32, i32, i32, i32, i32, i32, i32, i32, i32, i32, i32, i32, i32, i32, i32, i32, i32, i32, i32, i32, i32, i32, i32, i32, i32, i32, i32, i32, float, ptr, float, [7 x %struct.stbte__panel], [65536 x [8 x i16]], [65536 x [1 x float]], i32, i32, ptr, i32, i32, i32, i32 }
%struct.stbte_tilemap = type { [200 x [200 x [8 x i16]]], [200 x [200 x [1 x float]]], i32, i32, i32, i32, i32, i32, i32, i32, i32, i32, i32, i32, [100 x ptr], i32, i32, ptr, i32, i32, i32, i8, i8, i8, i8, i32, i32, i32, [8 x %struct.stbte__layer], i32, i32, i32, i32, i32, i32, i32, i32, i16, [4096 x i8], ptr }
%struct.stbte__layer = type { ptr, i32, i32 }
%struct.stbte__tileinfo = type { i16, i16, ptr, i32 }

; Function Attrs: nounwind uwtable
define void @stbte__activate(i32 noundef %0) #0 {
  %2 = alloca i32, align 4
  store i32 %0, ptr %2, align 4, !tbaa !13
  %3 = load i32, ptr %2, align 4, !tbaa !13
  store i32 %3, ptr getelementptr inbounds nuw (%struct.stbte__ui_t, ptr @stbte__ui, i32 0, i32 2), align 8, !tbaa !109
  %4 = load i32, ptr getelementptr inbounds nuw (%struct.stbte__ui_t, ptr @stbte__ui, i32 0, i32 5), align 4, !tbaa !110
  store i32 %4, ptr getelementptr inbounds nuw (%struct.stbte__ui_t, ptr @stbte__ui, i32 0, i32 1), align 4, !tbaa !111
  store i32 0, ptr getelementptr inbounds nuw (%struct.stbte__ui_t, ptr @stbte__ui, i32 0, i32 31), align 4, !tbaa !112
  store i32 0, ptr getelementptr inbounds nuw (%struct.stbte__ui_t, ptr @stbte__ui, i32 0, i32 32), align 8, !tbaa !113
  ret void
}

; Function Attrs: nounwind uwtable
define i32 @stbte__button_core(i32 noundef %0) #0 {
  %2 = alloca i32, align 4
  %3 = alloca i32, align 4
  store i32 %0, ptr %3, align 4, !tbaa !13
  %4 = load i32, ptr getelementptr inbounds nuw (%struct.stbte__ui_t, ptr @stbte__ui, i32 0, i32 5), align 4, !tbaa !110
  switch i32 %4, label %45 [
    i32 4, label %5
    i32 5, label %15
    i32 6, label %25
    i32 7, label %35
  ]

5:                                                ; preds = %1
  %6 = load i32, ptr getelementptr inbounds nuw (%struct.stbte__ui_t, ptr @stbte__ui, i32 0, i32 3), align 4, !tbaa !117
  %7 = load i32, ptr %3, align 4, !tbaa !13
  %8 = icmp eq i32 %6, %7
  br i1 %8, label %9, label %14

9:                                                ; preds = %5
  %10 = load i32, ptr getelementptr inbounds nuw (%struct.stbte__ui_t, ptr @stbte__ui, i32 0, i32 2), align 8, !tbaa !109
  %11 = icmp eq i32 %10, 0
  br i1 %11, label %12, label %14

12:                                               ; preds = %9
  %13 = load i32, ptr %3, align 4, !tbaa !13
  call void @stbte__activate(i32 noundef %13)
  br label %14

14:                                               ; preds = %12, %9, %5
  br label %45

15:                                               ; preds = %1
  %16 = load i32, ptr getelementptr inbounds nuw (%struct.stbte__ui_t, ptr @stbte__ui, i32 0, i32 2), align 8, !tbaa !109
  %17 = load i32, ptr %3, align 4, !tbaa !13
  %18 = icmp eq i32 %16, %17
  br i1 %18, label %19, label %24

19:                                               ; preds = %15
  %20 = load i32, ptr getelementptr inbounds nuw (%struct.stbte__ui_t, ptr @stbte__ui, i32 0, i32 3), align 4, !tbaa !117
  %21 = load i32, ptr %3, align 4, !tbaa !13
  %22 = icmp eq i32 %20, %21
  br i1 %22, label %23, label %24

23:                                               ; preds = %19
  call void @stbte__activate(i32 noundef 0)
  store i32 1, ptr %2, align 4
  br label %46

24:                                               ; preds = %19, %15
  br label %45

25:                                               ; preds = %1
  %26 = load i32, ptr getelementptr inbounds nuw (%struct.stbte__ui_t, ptr @stbte__ui, i32 0, i32 3), align 4, !tbaa !117
  %27 = load i32, ptr %3, align 4, !tbaa !13
  %28 = icmp eq i32 %26, %27
  br i1 %28, label %29, label %34

29:                                               ; preds = %25
  %30 = load i32, ptr getelementptr inbounds nuw (%struct.stbte__ui_t, ptr @stbte__ui, i32 0, i32 2), align 8, !tbaa !109
  %31 = icmp eq i32 %30, 0
  br i1 %31, label %32, label %34

32:                                               ; preds = %29
  %33 = load i32, ptr %3, align 4, !tbaa !13
  call void @stbte__activate(i32 noundef %33)
  br label %34

34:                                               ; preds = %32, %29, %25
  br label %45

35:                                               ; preds = %1
  %36 = load i32, ptr getelementptr inbounds nuw (%struct.stbte__ui_t, ptr @stbte__ui, i32 0, i32 2), align 8, !tbaa !109
  %37 = load i32, ptr %3, align 4, !tbaa !13
  %38 = icmp eq i32 %36, %37
  br i1 %38, label %39, label %44

39:                                               ; preds = %35
  %40 = load i32, ptr getelementptr inbounds nuw (%struct.stbte__ui_t, ptr @stbte__ui, i32 0, i32 3), align 4, !tbaa !117
  %41 = load i32, ptr %3, align 4, !tbaa !13
  %42 = icmp eq i32 %40, %41
  br i1 %42, label %43, label %44

43:                                               ; preds = %39
  call void @stbte__activate(i32 noundef 0)
  store i32 -1, ptr %2, align 4
  br label %46

44:                                               ; preds = %39, %35
  br label %45

45:                                               ; preds = %1, %44, %34, %24, %14
  store i32 0, ptr %2, align 4
  br label %46

46:                                               ; preds = %45, %43, %23
  %47 = load i32, ptr %2, align 4
  ret i32 %47
}

; Function Attrs: nounwind uwtable
define void @stbte__draw_frame_delayed(i32 noundef %0, i32 noundef %1, i32 noundef %2, i32 noundef %3, i32 noundef %4) #0 {
  %6 = alloca i32, align 4
  %7 = alloca i32, align 4
  %8 = alloca i32, align 4
  %9 = alloca i32, align 4
  %10 = alloca i32, align 4
  %11 = alloca %struct.stbte__colorrect, align 4
  store i32 %0, ptr %6, align 4, !tbaa !13
  store i32 %1, ptr %7, align 4, !tbaa !13
  store i32 %2, ptr %8, align 4, !tbaa !13
  store i32 %3, ptr %9, align 4, !tbaa !13
  store i32 %4, ptr %10, align 4, !tbaa !13
  %12 = load i32, ptr getelementptr inbounds nuw (%struct.stbte__ui_t, ptr @stbte__ui, i32 0, i32 16), align 8, !tbaa !100
  %13 = icmp slt i32 %12, 256
  br i1 %13, label %14, label %29

14:                                               ; preds = %5
  call void @llvm.lifetime.start.p0(i64 20, ptr %11) #8
  %15 = getelementptr inbounds nuw %struct.stbte__colorrect, ptr %11, i32 0, i32 0
  %16 = load i32, ptr %6, align 4, !tbaa !13
  store i32 %16, ptr %15, align 4, !tbaa !101
  %17 = getelementptr inbounds nuw %struct.stbte__colorrect, ptr %11, i32 0, i32 1
  %18 = load i32, ptr %7, align 4, !tbaa !13
  store i32 %18, ptr %17, align 4, !tbaa !103
  %19 = getelementptr inbounds nuw %struct.stbte__colorrect, ptr %11, i32 0, i32 2
  %20 = load i32, ptr %8, align 4, !tbaa !13
  store i32 %20, ptr %19, align 4, !tbaa !104
  %21 = getelementptr inbounds nuw %struct.stbte__colorrect, ptr %11, i32 0, i32 3
  %22 = load i32, ptr %9, align 4, !tbaa !13
  store i32 %22, ptr %21, align 4, !tbaa !105
  %23 = getelementptr inbounds nuw %struct.stbte__colorrect, ptr %11, i32 0, i32 4
  %24 = load i32, ptr %10, align 4, !tbaa !13
  store i32 %24, ptr %23, align 4, !tbaa !106
  %25 = load i32, ptr getelementptr inbounds nuw (%struct.stbte__ui_t, ptr @stbte__ui, i32 0, i32 16), align 8, !tbaa !100
  %26 = add nsw i32 %25, 1
  store i32 %26, ptr getelementptr inbounds nuw (%struct.stbte__ui_t, ptr @stbte__ui, i32 0, i32 16), align 8, !tbaa !100
  %27 = sext i32 %25 to i64
  %28 = getelementptr inbounds [256 x %struct.stbte__colorrect], ptr getelementptr inbounds nuw (%struct.stbte__ui_t, ptr @stbte__ui, i32 0, i32 15), i64 0, i64 %27
  call void @llvm.memcpy.p0.p0.i64(ptr align 4 %28, ptr align 4 %11, i64 20, i1 false), !tbaa.struct !107
  call void @llvm.lifetime.end.p0(i64 20, ptr %11) #8
  br label %29

29:                                               ; preds = %14, %5
  ret void
}

; Function Attrs: nounwind uwtable
define void @stbte__draw_rect(i32 noundef %0, i32 noundef %1, i32 noundef %2, i32 noundef %3, i32 noundef %4) #0 {
  %6 = alloca i32, align 4
  %7 = alloca i32, align 4
  %8 = alloca i32, align 4
  %9 = alloca i32, align 4
  %10 = alloca i32, align 4
  store i32 %0, ptr %6, align 4, !tbaa !13
  store i32 %1, ptr %7, align 4, !tbaa !13
  store i32 %2, ptr %8, align 4, !tbaa !13
  store i32 %3, ptr %9, align 4, !tbaa !13
  store i32 %4, ptr %10, align 4, !tbaa !13
  %11 = load i32, ptr %6, align 4, !tbaa !13
  %12 = load i32, ptr %7, align 4, !tbaa !13
  %13 = load i32, ptr %8, align 4, !tbaa !13
  %14 = load i32, ptr %9, align 4, !tbaa !13
  %15 = load i32, ptr %10, align 4, !tbaa !13
  call void @STBTE_DRAW_RECT(i32 noundef %11, i32 noundef %12, i32 noundef %13, i32 noundef %14, i32 noundef %15)
  ret void
}

; Function Attrs: nounwind uwtable
define i32 @stbte__hittest(i32 noundef %0, i32 noundef %1, i32 noundef %2, i32 noundef %3, i32 noundef %4) #0 {
  %6 = alloca i32, align 4
  %7 = alloca i32, align 4
  %8 = alloca i32, align 4
  %9 = alloca i32, align 4
  %10 = alloca i32, align 4
  %11 = alloca i32, align 4
  store i32 %0, ptr %6, align 4, !tbaa !13
  store i32 %1, ptr %7, align 4, !tbaa !13
  store i32 %2, ptr %8, align 4, !tbaa !13
  store i32 %3, ptr %9, align 4, !tbaa !13
  store i32 %4, ptr %10, align 4, !tbaa !13
  call void @llvm.lifetime.start.p0(i64 4, ptr %11) #8
  %12 = load i32, ptr getelementptr inbounds nuw (%struct.stbte__ui_t, ptr @stbte__ui, i32 0, i32 6), align 8, !tbaa !114
  %13 = load i32, ptr %6, align 4, !tbaa !13
  %14 = icmp sge i32 %12, %13
  br i1 %14, label %15, label %27

15:                                               ; preds = %5
  %16 = load i32, ptr getelementptr inbounds nuw (%struct.stbte__ui_t, ptr @stbte__ui, i32 0, i32 7), align 4, !tbaa !115
  %17 = load i32, ptr %7, align 4, !tbaa !13
  %18 = icmp sge i32 %16, %17
  br i1 %18, label %19, label %27

19:                                               ; preds = %15
  %20 = load i32, ptr getelementptr inbounds nuw (%struct.stbte__ui_t, ptr @stbte__ui, i32 0, i32 6), align 8, !tbaa !114
  %21 = load i32, ptr %8, align 4, !tbaa !13
  %22 = icmp slt i32 %20, %21
  br i1 %22, label %23, label %27

23:                                               ; preds = %19
  %24 = load i32, ptr getelementptr inbounds nuw (%struct.stbte__ui_t, ptr @stbte__ui, i32 0, i32 7), align 4, !tbaa !115
  %25 = load i32, ptr %9, align 4, !tbaa !13
  %26 = icmp slt i32 %24, %25
  br label %27

27:                                               ; preds = %23, %19, %15, %5
  %28 = phi i1 [ false, %19 ], [ false, %15 ], [ false, %5 ], [ %26, %23 ]
  %29 = zext i1 %28 to i32
  store i32 %29, ptr %11, align 4, !tbaa !13
  %30 = load i32, ptr %11, align 4, !tbaa !13
  %31 = icmp ne i32 %30, 0
  br i1 %31, label %32, label %37

32:                                               ; preds = %27
  %33 = load i32, ptr getelementptr inbounds nuw (%struct.stbte__ui_t, ptr @stbte__ui, i32 0, i32 5), align 4, !tbaa !110
  %34 = icmp sge i32 %33, 1
  br i1 %34, label %35, label %37

35:                                               ; preds = %32
  %36 = load i32, ptr %10, align 4, !tbaa !13
  store i32 %36, ptr getelementptr inbounds nuw (%struct.stbte__ui_t, ptr @stbte__ui, i32 0, i32 4), align 8, !tbaa !116
  br label %37

37:                                               ; preds = %35, %32, %27
  %38 = load i32, ptr %11, align 4, !tbaa !13
  call void @llvm.lifetime.end.p0(i64 4, ptr %11) #8
  ret i32 %38
}

; Function Attrs: nounwind uwtable
define void @stbte__tile_in_palette(ptr noundef %0, i32 noundef %1, i32 noundef %2, i32 noundef %3) #0 {
  %5 = alloca ptr, align 8
  %6 = alloca i32, align 4
  %7 = alloca i32, align 4
  %8 = alloca i32, align 4
  %9 = alloca ptr, align 8
  %10 = alloca i32, align 4
  %11 = alloca i32, align 4
  %12 = alloca i32, align 4
  %13 = alloca i32, align 4
  %14 = alloca i32, align 4
  store ptr %0, ptr %5, align 8, !tbaa !25
  store i32 %1, ptr %6, align 4, !tbaa !13
  store i32 %2, ptr %7, align 4, !tbaa !13
  store i32 %3, ptr %8, align 4, !tbaa !13
  call void @llvm.lifetime.start.p0(i64 8, ptr %9) #8
  %15 = load ptr, ptr %5, align 8, !tbaa !25
  %16 = getelementptr inbounds nuw %struct.stbte_tilemap, ptr %15, i32 0, i32 17
  %17 = load ptr, ptr %16, align 8, !tbaa !26
  %18 = load i32, ptr %8, align 4, !tbaa !13
  %19 = sext i32 %18 to i64
  %20 = getelementptr inbounds %struct.stbte__tileinfo, ptr %17, i64 %19
  store ptr %20, ptr %9, align 8, !tbaa !85
  call void @llvm.lifetime.start.p0(i64 4, ptr %10) #8
  %21 = load i32, ptr %6, align 4, !tbaa !13
  store i32 %21, ptr %10, align 4, !tbaa !13
  call void @llvm.lifetime.start.p0(i64 4, ptr %11) #8
  %22 = load i32, ptr %7, align 4, !tbaa !13
  store i32 %22, ptr %11, align 4, !tbaa !13
  call void @llvm.lifetime.start.p0(i64 4, ptr %12) #8
  %23 = load i32, ptr %6, align 4, !tbaa !13
  %24 = load ptr, ptr %5, align 8, !tbaa !25
  %25 = getelementptr inbounds nuw %struct.stbte_tilemap, ptr %24, i32 0, i32 7
  %26 = load i32, ptr %25, align 4, !tbaa !38
  %27 = add nsw i32 %23, %26
  %28 = sub nsw i32 %27, 1
  store i32 %28, ptr %12, align 4, !tbaa !13
  call void @llvm.lifetime.start.p0(i64 4, ptr %13) #8
  %29 = load i32, ptr %7, align 4, !tbaa !13
  %30 = load ptr, ptr %5, align 8, !tbaa !25
  %31 = getelementptr inbounds nuw %struct.stbte_tilemap, ptr %30, i32 0, i32 8
  %32 = load i32, ptr %31, align 8, !tbaa !39
  %33 = add nsw i32 %29, %32
  store i32 %33, ptr %13, align 4, !tbaa !13
  call void @llvm.lifetime.start.p0(i64 4, ptr %14) #8
  %34 = load i32, ptr %8, align 4, !tbaa !13
  %35 = shl i32 %34, 7
  %36 = add nsw i32 7, %35
  store i32 %36, ptr %14, align 4, !tbaa !13
  %37 = load i32, ptr %10, align 4, !tbaa !13
  %38 = load i32, ptr %11, align 4, !tbaa !13
  %39 = load i32, ptr %12, align 4, !tbaa !13
  %40 = load i32, ptr %13, align 4, !tbaa !13
  %41 = load i32, ptr %14, align 4, !tbaa !13
  %42 = call i32 @stbte__hittest(i32 noundef %37, i32 noundef %38, i32 noundef %39, i32 noundef %40, i32 noundef %41)
  %43 = load i32, ptr getelementptr inbounds nuw (%struct.stbte__ui_t, ptr @stbte__ui, i32 0, i32 5), align 4, !tbaa !110
  switch i32 %43, label %90 [
    i32 0, label %44
  ]

44:                                               ; preds = %4
  %45 = load i32, ptr %6, align 4, !tbaa !13
  %46 = load i32, ptr %7, align 4, !tbaa !13
  %47 = load i32, ptr %6, align 4, !tbaa !13
  %48 = load ptr, ptr %5, align 8, !tbaa !25
  %49 = getelementptr inbounds nuw %struct.stbte_tilemap, ptr %48, i32 0, i32 7
  %50 = load i32, ptr %49, align 4, !tbaa !38
  %51 = add nsw i32 %47, %50
  %52 = sub nsw i32 %51, 1
  %53 = load i32, ptr %7, align 4, !tbaa !13
  %54 = load ptr, ptr %5, align 8, !tbaa !25
  %55 = getelementptr inbounds nuw %struct.stbte_tilemap, ptr %54, i32 0, i32 7
  %56 = load i32, ptr %55, align 4, !tbaa !38
  %57 = add nsw i32 %53, %56
  %58 = sub nsw i32 %57, 1
  call void @stbte__draw_rect(i32 noundef %45, i32 noundef %46, i32 noundef %52, i32 noundef %58, i32 noundef 0)
  %59 = load i32, ptr %6, align 4, !tbaa !13
  %60 = load i32, ptr %7, align 4, !tbaa !13
  %61 = load i32, ptr %14, align 4, !tbaa !13
  %62 = trunc i32 %61 to i16
  %63 = load i32, ptr %8, align 4, !tbaa !13
  %64 = load ptr, ptr %5, align 8, !tbaa !25
  %65 = getelementptr inbounds nuw %struct.stbte_tilemap, ptr %64, i32 0, i32 12
  %66 = load i32, ptr %65, align 8, !tbaa !41
  %67 = icmp eq i32 %63, %66
  %68 = zext i1 %67 to i32
  call void @STBTE_DRAW_TILE(i32 noundef %59, i32 noundef %60, i16 noundef zeroext %62, i32 noundef %68, ptr noundef null)
  %69 = load i32, ptr %8, align 4, !tbaa !13
  %70 = load ptr, ptr %5, align 8, !tbaa !25
  %71 = getelementptr inbounds nuw %struct.stbte_tilemap, ptr %70, i32 0, i32 12
  %72 = load i32, ptr %71, align 8, !tbaa !41
  %73 = icmp eq i32 %69, %72
  br i1 %73, label %74, label %89

74:                                               ; preds = %44
  %75 = load i32, ptr %6, align 4, !tbaa !13
  %76 = sub nsw i32 %75, 1
  %77 = load i32, ptr %7, align 4, !tbaa !13
  %78 = sub nsw i32 %77, 1
  %79 = load i32, ptr %6, align 4, !tbaa !13
  %80 = load ptr, ptr %5, align 8, !tbaa !25
  %81 = getelementptr inbounds nuw %struct.stbte_tilemap, ptr %80, i32 0, i32 7
  %82 = load i32, ptr %81, align 4, !tbaa !38
  %83 = add nsw i32 %79, %82
  %84 = load i32, ptr %7, align 4, !tbaa !13
  %85 = load ptr, ptr %5, align 8, !tbaa !25
  %86 = getelementptr inbounds nuw %struct.stbte_tilemap, ptr %85, i32 0, i32 8
  %87 = load i32, ptr %86, align 8, !tbaa !39
  %88 = add nsw i32 %84, %87
  call void @stbte__draw_frame_delayed(i32 noundef %76, i32 noundef %78, i32 noundef %83, i32 noundef %88, i32 noundef 16777215)
  br label %89

89:                                               ; preds = %74, %44
  br label %99

90:                                               ; preds = %4
  %91 = load i32, ptr %14, align 4, !tbaa !13
  %92 = call i32 @stbte__button_core(i32 noundef %91)
  %93 = icmp ne i32 %92, 0
  br i1 %93, label %94, label %98

94:                                               ; preds = %90
  %95 = load i32, ptr %8, align 4, !tbaa !13
  %96 = load ptr, ptr %5, align 8, !tbaa !25
  %97 = getelementptr inbounds nuw %struct.stbte_tilemap, ptr %96, i32 0, i32 12
  store i32 %95, ptr %97, align 8, !tbaa !41
  br label %98

98:                                               ; preds = %94, %90
  br label %99

99:                                               ; preds = %98, %89
  call void @llvm.lifetime.end.p0(i64 4, ptr %14) #8
  call void @llvm.lifetime.end.p0(i64 4, ptr %13) #8
  call void @llvm.lifetime.end.p0(i64 4, ptr %12) #8
  call void @llvm.lifetime.end.p0(i64 4, ptr %11) #8
  call void @llvm.lifetime.end.p0(i64 4, ptr %10) #8
  call void @llvm.lifetime.end.p0(i64 8, ptr %9) #8
  ret void
}