; Function Attrs: nounwind uwtable
define void @stbte__tile_in_palette(ptr noundef captures(none) %0, i32 noundef %1, i32 noundef %2, i32 noundef %3) local_unnamed_addr #15 {
  %5 = getelementptr inbounds nuw i8, ptr %0, i64 800020
  %6 = load i32, ptr %5, align 4, !tbaa !36
  %7 = add i32 %1, -1
  %8 = add i32 %7, %6
  %9 = getelementptr inbounds nuw i8, ptr %0, i64 800024
  %10 = shl i32 %3, 7
  %11 = or disjoint i32 %10, 7
  %12 = load i32, ptr getelementptr inbounds nuw (i8, ptr @stbte__ui, i64 24), align 8, !tbaa !99
  %.not.i = icmp slt i32 %12, %1
  br i1 %.not.i, label %stbte__hittest.exitthread-pre-split, label %13

13:                                               ; preds = %4
  %14 = load i32, ptr %9, align 8, !tbaa !37
  %15 = add nsw i32 %14, %2
  %16 = load i32, ptr getelementptr inbounds nuw (i8, ptr @stbte__ui, i64 28), align 4, !tbaa !100
  %.not9.i = icmp sge i32 %16, %2
  %17 = icmp slt i32 %12, %8
  %or.cond10.i = and i1 %17, %.not9.i
  %18 = icmp slt i32 %16, %15
  %spec.select.i = and i1 %18, %or.cond10.i
  %19 = load i32, ptr getelementptr inbounds nuw (i8, ptr @stbte__ui, i64 20), align 4
  %20 = icmp sgt i32 %19, 0
  %or.cond.i = select i1 %spec.select.i, i1 %20, i1 false
  br i1 %or.cond.i, label %stbte__hittest.exit.thread, label %stbte__hittest.exit

stbte__hittest.exit.thread:                       ; preds = %13
  store i32 %11, ptr getelementptr inbounds nuw (i8, ptr @stbte__ui, i64 16), align 8, !tbaa !101
  br label %43

stbte__hittest.exitthread-pre-split:              ; preds = %4
  %.pr = load i32, ptr getelementptr inbounds nuw (i8, ptr @stbte__ui, i64 20), align 4, !tbaa !95
  br label %stbte__hittest.exit

stbte__hittest.exit:                              ; preds = %stbte__hittest.exitthread-pre-split, %13
  %21 = phi i32 [ %.pr, %stbte__hittest.exitthread-pre-split ], [ %19, %13 ]
  %cond = icmp eq i32 %21, 0
  br i1 %cond, label %22, label %43

22:                                               ; preds = %stbte__hittest.exit
  %23 = add i32 %2, -1
  %24 = add i32 %23, %6
  tail call void @STBTE_DRAW_RECT(i32 noundef %1, i32 noundef %2, i32 noundef %8, i32 noundef %24, i32 noundef 0) #26
  %25 = trunc i32 %11 to i16
  %26 = getelementptr inbounds nuw i8, ptr %0, i64 800040
  %27 = load i32, ptr %26, align 8, !tbaa !39
  %28 = icmp eq i32 %3, %27
  %29 = zext i1 %28 to i32
  tail call void @STBTE_DRAW_TILE(i32 noundef %1, i32 noundef %2, i16 noundef zeroext %25, i32 noundef %29, ptr noundef null) #26
  %30 = load i32, ptr %26, align 8, !tbaa !39
  %31 = icmp eq i32 %3, %30
  br i1 %31, label %32, label %stbte__draw_frame_delayed.exit

32:                                               ; preds = %22
  %33 = load i32, ptr getelementptr inbounds nuw (i8, ptr @stbte__ui, i64 5184), align 8, !tbaa !86
  %34 = icmp slt i32 %33, 256
  br i1 %34, label %35, label %stbte__draw_frame_delayed.exit

35:                                               ; preds = %32
  %36 = load i32, ptr %9, align 8, !tbaa !37
  %37 = add nsw i32 %36, %2
  %38 = load i32, ptr %5, align 4, !tbaa !36
  %39 = add nsw i32 %38, %1
  %40 = add nsw i32 %33, 1
  store i32 %40, ptr getelementptr inbounds nuw (i8, ptr @stbte__ui, i64 5184), align 8, !tbaa !86
  %41 = sext i32 %33 to i64
  %42 = getelementptr inbounds [256 x %struct.stbte__colorrect], ptr getelementptr inbounds nuw (i8, ptr @stbte__ui, i64 64), i64 0, i64 %41
  store i32 %7, ptr %42, align 4, !tbaa !67
  %.sroa.4.0..sroa_idx.i = getelementptr inbounds nuw i8, ptr %42, i64 4
  store i32 %23, ptr %.sroa.4.0..sroa_idx.i, align 4, !tbaa !67
  %.sroa.5.0..sroa_idx.i = getelementptr inbounds nuw i8, ptr %42, i64 8
  store i32 %39, ptr %.sroa.5.0..sroa_idx.i, align 4, !tbaa !67
  %.sroa.6.0..sroa_idx.i = getelementptr inbounds nuw i8, ptr %42, i64 12
  store i32 %37, ptr %.sroa.6.0..sroa_idx.i, align 4, !tbaa !67
  %.sroa.7.0..sroa_idx.i = getelementptr inbounds nuw i8, ptr %42, i64 16
  store i32 16777215, ptr %.sroa.7.0..sroa_idx.i, align 4, !tbaa !67
  br label %stbte__draw_frame_delayed.exit

43:                                               ; preds = %stbte__hittest.exit.thread, %stbte__hittest.exit
  %44 = phi i32 [ %19, %stbte__hittest.exit.thread ], [ %21, %stbte__hittest.exit ]
  switch i32 %44, label %stbte__draw_frame_delayed.exit [
    i32 4, label %45
    i32 5, label %50
    i32 6, label %55
    i32 7, label %60
  ]

45:                                               ; preds = %43
  %46 = load i32, ptr getelementptr inbounds nuw (i8, ptr @stbte__ui, i64 12), align 4, !tbaa !102
  %47 = icmp eq i32 %46, %11
  %48 = load i32, ptr getelementptr inbounds nuw (i8, ptr @stbte__ui, i64 8), align 8
  %49 = icmp eq i32 %48, 0
  %or.cond.i35 = select i1 %47, i1 %49, i1 false
  br i1 %or.cond.i35, label %stbte__button_core.exit.thread40, label %stbte__draw_frame_delayed.exit

50:                                               ; preds = %43
  %51 = load i32, ptr getelementptr inbounds nuw (i8, ptr @stbte__ui, i64 8), align 8, !tbaa !94
  %52 = icmp eq i32 %51, %11
  %53 = load i32, ptr getelementptr inbounds nuw (i8, ptr @stbte__ui, i64 12), align 4
  %54 = icmp eq i32 %53, %11
  %or.cond14.i = select i1 %52, i1 %54, i1 false
  br i1 %or.cond14.i, label %65, label %stbte__draw_frame_delayed.exit

55:                                               ; preds = %43
  %56 = load i32, ptr getelementptr inbounds nuw (i8, ptr @stbte__ui, i64 12), align 4, !tbaa !102
  %57 = icmp eq i32 %56, %11
  %58 = load i32, ptr getelementptr inbounds nuw (i8, ptr @stbte__ui, i64 8), align 8
  %59 = icmp eq i32 %58, 0
  %or.cond3.i = select i1 %57, i1 %59, i1 false
  br i1 %or.cond3.i, label %stbte__button_core.exit.thread40, label %stbte__draw_frame_delayed.exit

60:                                               ; preds = %43
  %61 = load i32, ptr getelementptr inbounds nuw (i8, ptr @stbte__ui, i64 8), align 8, !tbaa !94
  %62 = icmp eq i32 %61, %11
  %63 = load i32, ptr getelementptr inbounds nuw (i8, ptr @stbte__ui, i64 12), align 4
  %64 = icmp eq i32 %63, %11
  %or.cond16.i = select i1 %62, i1 %64, i1 false
  br i1 %or.cond16.i, label %65, label %stbte__draw_frame_delayed.exit

stbte__button_core.exit.thread40:                 ; preds = %45, %55
  store i32 %11, ptr getelementptr inbounds nuw (i8, ptr @stbte__ui, i64 8), align 8, !tbaa !94
  store i32 %44, ptr getelementptr inbounds nuw (i8, ptr @stbte__ui, i64 4), align 4, !tbaa !96
  store i32 0, ptr getelementptr inbounds nuw (i8, ptr @stbte__ui, i64 5244), align 4, !tbaa !97
  store i32 0, ptr getelementptr inbounds nuw (i8, ptr @stbte__ui, i64 5248), align 8, !tbaa !98
  br label %stbte__draw_frame_delayed.exit

65:                                               ; preds = %60, %50
  store i32 0, ptr getelementptr inbounds nuw (i8, ptr @stbte__ui, i64 8), align 8, !tbaa !94
  store i32 %44, ptr getelementptr inbounds nuw (i8, ptr @stbte__ui, i64 4), align 4, !tbaa !96
  store i32 0, ptr getelementptr inbounds nuw (i8, ptr @stbte__ui, i64 5244), align 4, !tbaa !97
  store i32 0, ptr getelementptr inbounds nuw (i8, ptr @stbte__ui, i64 5248), align 8, !tbaa !98
  %66 = getelementptr inbounds nuw i8, ptr %0, i64 800040
  store i32 %3, ptr %66, align 8, !tbaa !39
  br label %stbte__draw_frame_delayed.exit

stbte__draw_frame_delayed.exit:                   ; preds = %43, %45, %50, %55, %60, %stbte__button_core.exit.thread40, %35, %32, %65, %22
  ret void
}